; Function Attrs: mustprogress nounwind uwtable
define void @_ZN2cv4gapi3wip6onevpl7GSourceD2Ev(ptr nocapture noundef nonnull align 8 dereferenceable(32) %0) unnamed_addr #7 align 2 personality ptr @__gxx_personality_v0 {
  store ptr getelementptr inbounds inrange(-16, 40) (i8, ptr @_ZTVN2cv4gapi3wip6onevpl7GSourceE, i64 16), ptr %0, align 8
  %2 = getelementptr inbounds i8, ptr %0, i64 24
  %3 = load ptr, ptr %2, align 8
  %.not.i = icmp eq ptr %3, null
  br i1 %.not.i, label %_ZNSt10unique_ptrIN2cv4gapi3wip6onevpl7GSource4PrivESt14default_deleteIS5_EED2Ev.exit, label %_ZNKSt14default_deleteIN2cv4gapi3wip6onevpl7GSource4PrivEEclEPS5_.exit.i

_ZNKSt14default_deleteIN2cv4gapi3wip6onevpl7GSource4PrivEEclEPS5_.exit.i: ; preds = %1
  tail call void @_ZdlPv(ptr noundef nonnull %3) #13
  br label %_ZNSt10unique_ptrIN2cv4gapi3wip6onevpl7GSource4PrivESt14default_deleteIS5_EED2Ev.exit

_ZNSt10unique_ptrIN2cv4gapi3wip6onevpl7GSource4PrivESt14default_deleteIS5_EED2Ev.exit: ; preds = %1, %_ZNKSt14default_deleteIN2cv4gapi3wip6onevpl7GSource4PrivEEclEPS5_.exit.i
  store ptr null, ptr %2, align 8
  %4 = getelementptr inbounds i8, ptr %0, i64 16
  %5 = load ptr, ptr %4, align 8
  %.not.i.i.i.i.i = icmp eq ptr %5, null
  br i1 %.not.i.i.i.i.i, label %_ZN2cv4gapi3wip13IStreamSourceD2Ev.exit, label %6

6:                                                ; preds = %_ZNSt10unique_ptrIN2cv4gapi3wip6onevpl7GSource4PrivESt14default_deleteIS5_EED2Ev.exit
  %7 = getelementptr inbounds i8, ptr %5, i64 12
  %8 = load i8, ptr @__libc_single_threaded, align 1
  %.not.i.i.i.i.i.i = icmp eq i8 %8, 0
  br i1 %.not.i.i.i.i.i.i, label %12, label %9

9:                                                ; preds = %6
  %10 = load i32, ptr %7, align 4
  %11 = add nsw i32 %10, -1
  store i32 %11, ptr %7, align 4
  br label %14

12:                                               ; preds = %6
  %13 = atomicrmw volatile add ptr %7, i32 -1 acq_rel, align 4
  br label %14

14:                                               ; preds = %12, %9
  %.0.i.i.i.i.i.i = phi i32 [ %10, %9 ], [ %13, %12 ]
  %15 = icmp eq i32 %.0.i.i.i.i.i.i, 1
  br i1 %15, label %16, label %_ZN2cv4gapi3wip13IStreamSourceD2Ev.exit

16:                                               ; preds = %14
  %17 = load ptr, ptr %5, align 8
  %18 = getelementptr inbounds i8, ptr %17, i64 24
  %19 = load ptr, ptr %18, align 8
  tail call void %19(ptr noundef nonnull align 8 dereferenceable(16) %5) #11
  br label %_ZN2cv4gapi3wip13IStreamSourceD2Ev.exit

_ZN2cv4gapi3wip13IStreamSourceD2Ev.exit:          ; preds = %_ZNSt10unique_ptrIN2cv4gapi3wip6onevpl7GSource4PrivESt14default_deleteIS5_EED2Ev.exit, %14, %16
  ret void
}